; Function Attrs: mustprogress nounwind uwtable
define dso_local void @_ZNK4node8profiler20V8CoverageConnection11GetFilenameB5cxx11Ev(ptr noalias sret(%"class.std::__cxx11::basic_string") align 8 %agg.result, ptr nocapture noundef nonnull readonly align 8 dereferenceable(97) %this) unnamed_addr #3 align 2 {
entry:
  %timestamp = alloca i64, align 8
  %ref.tmp = alloca i32, align 4
  %ref.tmp3 = alloca i64, align 8
  %call = tail call noundef double @_ZN4node28GetCurrentTimeInMicrosecondsEv() #22
  %div = fdiv double %call, 1.000000e+03
  %conv = fptoui double %div to i64
  store i64 %conv, ptr %timestamp, align 8
  %call2 = tail call i32 @uv_os_getpid() #22
  store i32 %call2, ptr %ref.tmp, align 4
  %env_.i = getelementptr inbounds i8, ptr %this, i64 80
  %0 = load ptr, ptr %env_.i, align 8
  %thread_id_.i = getelementptr inbounds i8, ptr %0, i64 2072
  %1 = load i64, ptr %thread_id_.i, align 8
  store i64 %1, ptr %ref.tmp3, align 8
  call void @_ZN4node11SPrintFImplIiJRmmEEENSt7__cxx1112basic_stringIcSt11char_traitsIcESaIcEEEPKcOT_DpOT0_(ptr sret(%"class.std::__cxx11::basic_string") align 8 %agg.result, ptr noundef nonnull @.str.15, ptr noundef nonnull align 4 dereferenceable(4) %ref.tmp, ptr noundef nonnull align 8 dereferenceable(8) %timestamp, ptr noundef nonnull align 8 dereferenceable(8) %ref.tmp3) #23
  ret void
}